target datalayout = "e-m:e-p270:32:32-p271:32:32-p272:64:64-i64:64-i128:128-f80:128-n8:16:32:64-S128"
target triple = "x86_64-pc-linux-gnu"

@simd_support = internal thread_local global i32 -1, align 4

; Function Attrs: nounwind uwtable
define void @jsimd_fdct_islow(ptr noundef %0) #0 {
  %2 = alloca ptr, align 8
  store ptr %0, ptr %2, align 8, !tbaa !59
  %3 = call align 4 ptr @llvm.threadlocal.address.p0(ptr align 4 @simd_support)
  %4 = load i32, ptr %3, align 4, !tbaa !3
  %5 = icmp eq i32 %4, -1
  br i1 %5, label %6, label %7

6:                                                ; preds = %1
  call void @init_simd()
  br label %7

7:                                                ; preds = %6, %1
  %8 = call align 4 ptr @llvm.threadlocal.address.p0(ptr align 4 @simd_support)
  %9 = load i32, ptr %8, align 4, !tbaa !3
  %10 = and i32 %9, 128
  %11 = icmp ne i32 %10, 0
  br i1 %11, label %12, label %14

12:                                               ; preds = %7
  %13 = load ptr, ptr %2, align 8, !tbaa !59
  call void @jsimd_fdct_islow_avx2(ptr noundef %13)
  br label %16

14:                                               ; preds = %7
  %15 = load ptr, ptr %2, align 8, !tbaa !59
  call void @jsimd_fdct_islow_sse2(ptr noundef %15)
  br label %16

16:                                               ; preds = %14, %12
  ret void
}