; Function Attrs: nounwind uwtable
define void @jsimd_fdct_islow(ptr noundef %0) local_unnamed_addr #0 {
  %2 = tail call align 4 ptr @llvm.threadlocal.address.p0(ptr align 4 @simd_support)
  %3 = load i32, ptr %2, align 4, !tbaa !3
  %4 = icmp eq i32 %3, -1
  br i1 %4, label %5, label %6

5:                                                ; preds = %1
  tail call fastcc void @init_simd()
  %.pre = load i32, ptr %2, align 4, !tbaa !3
  br label %6

6:                                                ; preds = %5, %1
  %7 = phi i32 [ %.pre, %5 ], [ %3, %1 ]
  %8 = and i32 %7, 128
  %.not = icmp eq i32 %8, 0
  br i1 %.not, label %10, label %9

9:                                                ; preds = %6
  tail call void @jsimd_fdct_islow_avx2(ptr noundef %0) #8
  br label %11

10:                                               ; preds = %6
  tail call void @jsimd_fdct_islow_sse2(ptr noundef %0) #8
  br label %11

11:                                               ; preds = %10, %9
  ret void
}